; Function Attrs: mustprogress uwtable
define void @_ZNK13ATapDataModel3tapEv(ptr dead_on_unwind noalias nocapture writable writeonly sret(%class.QString) align 8 %0, ptr nocapture noundef nonnull readonly align 8 dereferenceable(120) %1) local_unnamed_addr #0 align 2 personality ptr @__gxx_personality_v0 {
  %3 = alloca %class.QString, align 16
  %4 = getelementptr inbounds i8, ptr %1, i64 80
  %5 = load i32, ptr %4, align 8
  %6 = tail call ptr @proto_get_protocol_filter_name(i32 noundef %5)
  call void @llvm.lifetime.start.p0(i64 24, ptr nonnull %3)
  %.not.i.i = icmp eq ptr %6, null
  br i1 %.not.i.i, label %_ZN7QStringC2EPKc.exit, label %.split.i.i

.split.i.i:                                       ; preds = %2
  %7 = tail call noundef i64 @strlen(ptr noundef nonnull dereferenceable(1) %6) #23
  br label %_ZN7QStringC2EPKc.exit

_ZN7QStringC2EPKc.exit:                           ; preds = %2, %.split.i.i
  %.sink5.i.i = phi i64 [ %7, %.split.i.i ], [ 0, %2 ]
  call void @_ZN7QString8fromUtf8E14QByteArrayView(ptr dead_on_unwind nonnull writable sret(%class.QString) align 8 %3, i64 %.sink5.i.i, ptr %6)
  %8 = load <2 x ptr>, ptr %3, align 16
  store <2 x ptr> %8, ptr %0, align 8
  %9 = getelementptr inbounds i8, ptr %0, i64 16
  %10 = getelementptr inbounds i8, ptr %3, i64 16
  %11 = load i64, ptr %10, align 16
  store i64 %11, ptr %9, align 8
  call void @llvm.lifetime.end.p0(i64 24, ptr nonnull %3)
  ret void
}